Certificate:
    Data:
        Version: 1 (0x0)
        Serial Number: 1 (0x1)
        Signature Algorithm: sha1WithRSAEncryption
        Issuer: C=JP, ST=Tokyo, O=Example Company, CN=example.com
        Validity
            Not Before: Dec  7 06:39:46 2016 GMT
            Not After : Dec  5 06:39:46 2026 GMT
        Subject: C=JP, ST=Tokyo, O=Example Company, CN=token.example.com
        Subject Public Key Info:
            Public Key Algorithm: rsaEncryption
            RSA Public Key: (512 bit)
                Modulus (512 bit):
                    00:e5:50:16:50:01:e3:19:5b:96:98:1e:33:1b:3c:
                    e9:d7:eb:5d:06:4b:c1:42:36:16:6c:2d:40:a4:2c:
                    aa:a0:c4:cd:10:3f:2c:e7:82:97:b3:d5:60:85:eb:
                    47:8e:e8:48:67:dc:b8:71:16:c8:3a:85:18:a5:47:
                    f7:af:da:b3:ab
                Exponent: 65537 (0x10001)
    Signature Algorithm: sha1WithRSAEncryption
        74:84:46:d8:5d:0a:b2:5b:ef:10:0b:02:08:57:70:c4:50:96:
        c8:2b:fa:ec:19:f7:5c:4f:9e:60:db:e5:04:74:43:b9:ea:f3:
        e1:ff:8d:a2:4a:b0:16:82:0d:3c:41:a1:c9:3d:9c:f3:bd:05:
        59:f8:fd:22:5e:c7:3e:e7:bb:e7:c4:95:4c:67:80:5b:e4:29:
        28:6e:58:1c:c1:08:98:be:69:09:5c:d5:20:ac:5a:5d:18:9d:
        73:2b:66:dd:3a:58:ed:ba:b9:17:5e:65:a0:43:4b:b5:ef:df:
        05:a3:45:73:a7:4c:92:71:a2:a2:c8:c3:f0:5a:f2:95:35:fa:
        4f:d6:ba:e9:13:2e:f5:29:94:41:56:9e:73:a5:ae:f4:93:3c:
        cc:82:62:c7:7f:aa:e7:3c:49:ab:df:8c:2f:62:99:18:78:be:
        2c:44:09:5c:de:ea:a5:10:68:9f:58:8e:fa:67:be:94:02:a1:
        00:a9:d1:1a:5e:5a:99:9d:99:90:24:86:6a:83:40:56:51:8b:
        dc:f0:1b:46:01:e1:5e:fd:0f:20:42:9a:dc:65:3c:de:9c:d4:
        b8:5f:51:d4:61:a9:41:fc:5a:e0:c0:2f:b2:06:0b:1b:6b:91:
        be:96:8b:0c:2e:04:d3:1d:0a:72:7f:ce:d0:95:39:ab:85:9a:
        6e:bb:49:05
-----BEGIN CERTIFICATE-----
MIICTDCCATQCAQEwDQYJKoZIhvcNAQEFBQAwTTELMAkGA1UEBhMCSlAxDjAMBgNV
BAgMBVRva3lvMRgwFgYDVQQKDA9FeGFtcGxlIENvbXBhbnkxFDASBgNVBAMMC2V4
YW1wbGUuY29tMB4XDTE2MTIwNzA2Mzk0NloXDTI2MTIwNTA2Mzk0NlowUzELMAkG
A1UEBhMCSlAxDjAMBgNVBAgMBVRva3lvMRgwFgYDVQQKDA9FeGFtcGxlIENvbXBh
bnkxGjAYBgNVBAMMEXRva2VuLmV4YW1wbGUuY29tMFwwDQYJKoZIhvcNAQEBBQAD
SwAwSAJBAOVQFlAB4xlblpgeMxs86dfrXQZLwUI2FmwtQKQsqqDEzRA/LOeCl7PV
YIXrR47oSGfcuHEWyDqFGKVH96/as6sCAwEAATANBgkqhkiG9w0BAQUFAAOCAQEA
dIRG2F0KslvvEAsCCFdwxFCWyCv67Bn3XE+eYNvlBHRDuerz4f+NokqwFoINPEGh
yT2c870FWfj9Il7HPue758SVTGeAW+QpKG5YHMEImL5pCVzVIKxaXRidcytm3TpY
7bq5F15loENLte/fBaNFc6dMknGiosjD8FrylTX6T9a66RMu9SmUQVaec6Wu9JM8
zIJix3+q5zxJq9+ML2KZGHi+LEQJXN7qpRBon1iO+me+lAKhAKnRGl5amZ2ZkCSG
aoNAVlGL3PAbRgHhXv0PIEKa3GU83pzUuF9R1GGpQfxa4MAvsgYLG2uRvpaLDC4E
0x0Kcn/O0JU5q4WabrtJBQ==
-----END CERTIFICATE-----
