Certificate:
    Data:
        Version: 1 (0x0)
        Serial Number: 2 (0x2)
        Signature Algorithm: sha1WithRSAEncryption
        Issuer: C=JP, ST=Tokyo, O=Example Company, CN=example.com
        Validity
            Not Before: Dec  7 06:41:10 2016 GMT
            Not After : Dec  5 06:41:10 2026 GMT
        Subject: C=JP, ST=Tokyo, O=Example Company, CN=fibo.example.com
        Subject Public Key Info:
            Public Key Algorithm: rsaEncryption
            RSA Public Key: (512 bit)
                Modulus (512 bit):
                    00:ca:65:5c:83:7e:e6:9a:0a:7a:3c:89:5f:d9:82:
                    53:79:c3:a6:88:22:9d:3e:a9:c9:f0:ae:06:33:8a:
                    e0:9e:1c:07:b6:47:7b:77:1a:a2:a3:5d:01:88:3c:
                    7c:73:b1:c9:ee:80:1a:b1:2e:7c:e0:82:81:c6:fb:
                    e2:fe:3a:e4:ab
                Exponent: 65537 (0x10001)
    Signature Algorithm: sha1WithRSAEncryption
        37:9e:1f:bb:fa:19:02:99:5b:50:9d:5f:6c:a8:46:45:39:30:
        90:b0:7c:7b:01:21:67:2c:c1:dd:ce:5c:c9:97:e8:34:a6:73:
        ef:5b:ad:ec:9d:bd:39:9d:c9:eb:9a:33:a9:69:3f:12:50:e4:
        98:c0:c9:4f:15:7c:ed:a0:7f:3b:6e:7f:56:1f:28:86:50:01:
        8b:00:e1:f9:96:98:fe:b2:52:2c:f5:81:8f:93:40:46:3e:d6:
        2c:f1:16:56:6e:08:f5:a5:52:f4:0c:f0:85:fb:81:37:02:b6:
        3f:28:f5:52:36:be:0b:a2:4e:ad:7b:e0:c2:d2:ca:df:aa:d1:
        03:b0:8d:e6:54:36:f4:e7:a6:06:91:61:ae:c6:60:4a:e4:ed:
        b8:75:94:71:3e:e0:09:ae:69:b5:5d:7f:2a:2e:8c:85:bb:9c:
        2c:48:32:92:a5:5e:ca:76:9b:44:c0:3c:9c:39:13:07:ca:73:
        64:27:de:53:aa:26:4b:ef:e2:97:e0:1d:7d:ac:bf:8b:69:0f:
        16:fb:c7:7f:5b:75:60:2b:ee:39:13:21:fe:00:79:5d:9b:2a:
        86:93:92:91:8d:b8:54:ac:0e:0d:8b:04:95:67:c7:d2:50:33:
        6f:39:4f:a6:da:ac:ea:47:1b:5c:f9:be:67:3f:a4:ed:85:3f:
        b0:9a:f6:dc
-----BEGIN CERTIFICATE-----
MIICSzCCATMCAQIwDQYJKoZIhvcNAQEFBQAwTTELMAkGA1UEBhMCSlAxDjAMBgNV
BAgMBVRva3lvMRgwFgYDVQQKDA9FeGFtcGxlIENvbXBhbnkxFDASBgNVBAMMC2V4
YW1wbGUuY29tMB4XDTE2MTIwNzA2NDExMFoXDTI2MTIwNTA2NDExMFowUjELMAkG
A1UEBhMCSlAxDjAMBgNVBAgMBVRva3lvMRgwFgYDVQQKDA9FeGFtcGxlIENvbXBh
bnkxGTAXBgNVBAMMEGZpYm8uZXhhbXBsZS5jb20wXDANBgkqhkiG9w0BAQEFAANL
ADBIAkEAymVcg37mmgp6PIlf2YJTecOmiCKdPqnJ8K4GM4rgnhwHtkd7dxqio10B
iDx8c7HJ7oAasS584IKBxvvi/jrkqwIDAQABMA0GCSqGSIb3DQEBBQUAA4IBAQA3
nh+7+hkCmVtQnV9sqEZFOTCQsHx7ASFnLMHdzlzJl+g0pnPvW63snb05ncnrmjOp
aT8SUOSYwMlPFXztoH87bn9WHyiGUAGLAOH5lpj+slIs9YGPk0BGPtYs8RZWbgj1
pVL0DPCF+4E3ArY/KPVSNr4Lok6te+DC0srfqtEDsI3mVDb056YGkWGuxmBK5O24
dZRxPuAJrmm1XX8qLoyFu5wsSDKSpV7KdptEwDycORMHynNkJ95TqiZL7+KX4B19
rL+LaQ8W+8d/W3VgK+45EyH+AHldmyqGk5KRjbhUrA4NiwSVZ8fSUDNvOU+m2qzq
Rxtc+b5nP6TthT+wmvbc
-----END CERTIFICATE-----
